; Function Attrs: nounwind uwtable
define hidden ptr @SDL_LoadBMP_REAL(ptr noundef %0) local_unnamed_addr #0 {
  %2 = tail call ptr @SDL_IOFromFile_REAL(ptr noundef %0, ptr noundef nonnull @.str.12) #5
  %.not = icmp eq ptr %2, null
  br i1 %.not, label %5, label %3

3:                                                ; preds = %1
  %4 = tail call ptr @SDL_LoadBMP_IO_REAL(ptr noundef nonnull %2, i1 noundef zeroext true)
  br label %5

5:                                                ; preds = %1, %3
  %.0 = phi ptr [ %4, %3 ], [ null, %1 ]
  ret ptr %.0
}